; Function Attrs: mustprogress nofree norecurse nosync nounwind willreturn memory(read, inaccessiblemem: none) uwtable
define internal noundef ptr @"_ZZN4pkpy2VM25__post_init_builtin_typesEvEN3$_68__invokeEPS0_NS_8ArgsViewE"(ptr nocapture noundef readonly %0, ptr nocapture readonly %1, ptr nocapture readnone %2) #19 align 2 {
  %4 = getelementptr inbounds i8, ptr %0, i64 264328
  %5 = load ptr, ptr %1, align 8
  %6 = getelementptr inbounds i8, ptr %5, i64 24
  %7 = load i16, ptr %6, align 2
  %8 = sext i16 %7 to i64
  %9 = load ptr, ptr %4, align 8
  %10 = getelementptr inbounds %"struct.pkpy::PyTypeInfo", ptr %9, i64 %8, i32 1
  %11 = load i16, ptr %10, align 8
  %12 = icmp eq i16 %11, -1
  %13 = getelementptr inbounds i8, ptr %0, i64 264520
  %14 = sext i16 %11 to i64
  %15 = getelementptr inbounds %"struct.pkpy::PyTypeInfo", ptr %9, i64 %14
  %.in.i = select i1 %12, ptr %13, ptr %15
  %16 = load ptr, ptr %.in.i, align 8
  ret ptr %16
}